; ModuleID = '9/1578.c'
source_filename = "9/1578.c"
target datalayout = "e-m:e-p270:32:32-p271:32:32-p272:64:64-i64:64-f80:128-n8:16:32:64-S128"
target triple = "x86_64-pc-linux-gnu"

%struct.BING = type { [10 x i8], i32 }

@.str = private unnamed_addr constant [3 x i8] c"%d\00", align 1
@.str.1 = private unnamed_addr constant [5 x i8] c"%s%d\00", align 1
@bing = common dso_local global [100 x %struct.BING] zeroinitializer, align 16
@.str.2 = private unnamed_addr constant [4 x i8] c"%s\0A\00", align 1
@temp = common dso_local global %struct.BING zeroinitializer, align 4

; Function Attrs: noinline nounwind uwtable
define dso_local i32 @main() #0 {
  %1 = alloca i32, align 4
  %2 = alloca i32, align 4
  %3 = alloca i32, align 4
  %4 = alloca i32, align 4
  %5 = alloca i32, align 4
  %6 = alloca i32, align 4
  %7 = alloca i32, align 4
  store i32 0, i32* %1, align 4
  %8 = call i32 (i8*, ...) @__isoc99_scanf(i8* getelementptr inbounds ([3 x i8], [3 x i8]* @.str, i64 0, i64 0), i32* %5)
  store i32 0, i32* %2, align 4
  br label %9

9:                                                ; preds = %24, %0
  %10 = load i32, i32* %2, align 4
  %11 = load i32, i32* %5, align 4
  %12 = icmp slt i32 %10, %11
  br i1 %12, label %13, label %27

13:                                               ; preds = %9
  %14 = load i32, i32* %2, align 4
  %15 = sext i32 %14 to i64
  %16 = getelementptr inbounds [100 x %struct.BING], [100 x %struct.BING]* @bing, i64 0, i64 %15
  %17 = getelementptr inbounds %struct.BING, %struct.BING* %16, i32 0, i32 0
  %18 = getelementptr inbounds [10 x i8], [10 x i8]* %17, i64 0, i64 0
  %19 = load i32, i32* %2, align 4
  %20 = sext i32 %19 to i64
  %21 = getelementptr inbounds [100 x %struct.BING], [100 x %struct.BING]* @bing, i64 0, i64 %20
  %22 = getelementptr inbounds %struct.BING, %struct.BING* %21, i32 0, i32 1
  %23 = call i32 (i8*, ...) @__isoc99_scanf(i8* getelementptr inbounds ([5 x i8], [5 x i8]* @.str.1, i64 0, i64 0), i8* %18, i32* %22)
  br label %24

24:                                               ; preds = %13
  %25 = load i32, i32* %2, align 4
  %26 = add nsw i32 %25, 1
  store i32 %26, i32* %2, align 4
  br label %9

27:                                               ; preds = %9
  store i32 0, i32* %6, align 4
  br label %28

28:                                               ; preds = %78, %27
  store i32 -1, i32* %7, align 4
  store i32 0, i32* %2, align 4
  br label %29

29:                                               ; preds = %56, %28
  %30 = load i32, i32* %2, align 4
  %31 = load i32, i32* %5, align 4
  %32 = icmp slt i32 %30, %31
  br i1 %32, label %33, label %59

33:                                               ; preds = %29
  %34 = load i32, i32* %2, align 4
  %35 = sext i32 %34 to i64
  %36 = getelementptr inbounds [100 x %struct.BING], [100 x %struct.BING]* @bing, i64 0, i64 %35
  %37 = getelementptr inbounds %struct.BING, %struct.BING* %36, i32 0, i32 1
  %38 = load i32, i32* %37, align 4
  %39 = load i32, i32* %7, align 4
  %40 = icmp sgt i32 %38, %39
  br i1 %40, label %41, label %55

41:                                               ; preds = %33
  %42 = load i32, i32* %2, align 4
  %43 = sext i32 %42 to i64
  %44 = getelementptr inbounds [100 x %struct.BING], [100 x %struct.BING]* @bing, i64 0, i64 %43
  %45 = getelementptr inbounds %struct.BING, %struct.BING* %44, i32 0, i32 1
  %46 = load i32, i32* %45, align 4
  %47 = icmp sge i32 %46, 60
  br i1 %47, label %48, label %55

48:                                               ; preds = %41
  %49 = load i32, i32* %2, align 4
  %50 = sext i32 %49 to i64
  %51 = getelementptr inbounds [100 x %struct.BING], [100 x %struct.BING]* @bing, i64 0, i64 %50
  %52 = getelementptr inbounds %struct.BING, %struct.BING* %51, i32 0, i32 1
  %53 = load i32, i32* %52, align 4
  store i32 %53, i32* %7, align 4
  %54 = load i32, i32* %2, align 4
  store i32 %54, i32* %4, align 4
  br label %55

55:                                               ; preds = %48, %41, %33
  br label %56

56:                                               ; preds = %55
  %57 = load i32, i32* %2, align 4
  %58 = add nsw i32 %57, 1
  store i32 %58, i32* %2, align 4
  br label %29

59:                                               ; preds = %29
  %60 = load i32, i32* %7, align 4
  %61 = icmp sge i32 %60, 60
  br i1 %61, label %62, label %73

62:                                               ; preds = %59
  %63 = load i32, i32* %4, align 4
  %64 = sext i32 %63 to i64
  %65 = getelementptr inbounds [100 x %struct.BING], [100 x %struct.BING]* @bing, i64 0, i64 %64
  %66 = getelementptr inbounds %struct.BING, %struct.BING* %65, i32 0, i32 0
  %67 = getelementptr inbounds [10 x i8], [10 x i8]* %66, i64 0, i64 0
  %68 = call i32 (i8*, ...) @printf(i8* getelementptr inbounds ([4 x i8], [4 x i8]* @.str.2, i64 0, i64 0), i8* %67)
  %69 = load i32, i32* %4, align 4
  %70 = sext i32 %69 to i64
  %71 = getelementptr inbounds [100 x %struct.BING], [100 x %struct.BING]* @bing, i64 0, i64 %70
  %72 = getelementptr inbounds %struct.BING, %struct.BING* %71, i32 0, i32 1
  store i32 -1, i32* %72, align 4
  br label %73

73:                                               ; preds = %62, %59
  %74 = load i32, i32* %7, align 4
  %75 = icmp slt i32 %74, 60
  br i1 %75, label %76, label %77

76:                                               ; preds = %73
  br label %81

77:                                               ; preds = %73
  br label %78

78:                                               ; preds = %77
  %79 = load i32, i32* %6, align 4
  %80 = add nsw i32 %79, 1
  store i32 %80, i32* %6, align 4
  br label %28

81:                                               ; preds = %76
  store i32 0, i32* %2, align 4
  br label %82

82:                                               ; preds = %108, %81
  %83 = load i32, i32* %2, align 4
  %84 = load i32, i32* %5, align 4
  %85 = icmp slt i32 %83, %84
  br i1 %85, label %86, label %111

86:                                               ; preds = %82
  %87 = load i32, i32* %2, align 4
  %88 = sext i32 %87 to i64
  %89 = getelementptr inbounds [100 x %struct.BING], [100 x %struct.BING]* @bing, i64 0, i64 %88
  %90 = getelementptr inbounds %struct.BING, %struct.BING* %89, i32 0, i32 1
  %91 = load i32, i32* %90, align 4
  %92 = icmp slt i32 %91, 60
  br i1 %92, label %93, label %107

93:                                               ; preds = %86
  %94 = load i32, i32* %2, align 4
  %95 = sext i32 %94 to i64
  %96 = getelementptr inbounds [100 x %struct.BING], [100 x %struct.BING]* @bing, i64 0, i64 %95
  %97 = getelementptr inbounds %struct.BING, %struct.BING* %96, i32 0, i32 1
  %98 = load i32, i32* %97, align 4
  %99 = icmp sge i32 %98, 0
  br i1 %99, label %100, label %107

100:                                              ; preds = %93
  %101 = load i32, i32* %2, align 4
  %102 = sext i32 %101 to i64
  %103 = getelementptr inbounds [100 x %struct.BING], [100 x %struct.BING]* @bing, i64 0, i64 %102
  %104 = getelementptr inbounds %struct.BING, %struct.BING* %103, i32 0, i32 0
  %105 = getelementptr inbounds [10 x i8], [10 x i8]* %104, i64 0, i64 0
  %106 = call i32 (i8*, ...) @printf(i8* getelementptr inbounds ([4 x i8], [4 x i8]* @.str.2, i64 0, i64 0), i8* %105)
  br label %107

107:                                              ; preds = %100, %93, %86
  br label %108

108:                                              ; preds = %107
  %109 = load i32, i32* %2, align 4
  %110 = add nsw i32 %109, 1
  store i32 %110, i32* %2, align 4
  br label %82

111:                                              ; preds = %82
  ret i32 0
}

declare dso_local i32 @__isoc99_scanf(i8*, ...) #1

declare dso_local i32 @printf(i8*, ...) #1


!llvm.module.flags = !{!0}
!llvm.ident = !{!1}

!0 = !{i32 1, !"wchar_size", i32 4}
!1 = !{!"clang version 10.0.0-4ubuntu1 "}
